; Function Attrs: nounwind uwtable
define ptr @l_Lean_Grind_CommRing_Poly_gcdCoeffs(ptr noundef %0) local_unnamed_addr #1 {
  %2 = ptrtoint ptr %0 to i64
  %3 = and i64 %2, 1
  %.not.i = icmp eq i64 %3, 0
  br i1 %.not.i, label %7, label %4

4:                                                ; preds = %1
  %5 = lshr i64 %2, 1
  %6 = trunc i64 %5 to i32
  br label %lean_obj_tag.exit

7:                                                ; preds = %1
  %8 = getelementptr i8, ptr %0, i64 4
  %.val.i = load i32, ptr %8, align 4
  %9 = lshr i32 %.val.i, 24
  br label %lean_obj_tag.exit

lean_obj_tag.exit:                                ; preds = %4, %7
  %.0.i = phi i32 [ %6, %4 ], [ %9, %7 ]
  %10 = icmp eq i32 %.0.i, 0
  %11 = getelementptr inbounds nuw i8, ptr %0, i64 8
  %12 = load ptr, ptr %11, align 8, !tbaa !6
  br i1 %10, label %13, label %42

13:                                               ; preds = %lean_obj_tag.exit
  %14 = ptrtoint ptr %12 to i64
  %15 = and i64 %14, 1
  %.not.i.i = icmp eq i64 %15, 0
  br i1 %.not.i.i, label %lean_int_lt.exit.i, label %16, !prof !4

16:                                               ; preds = %13
  %17 = and i64 %14, 4294967296
  %.not.i11 = icmp eq i64 %17, 0
  br i1 %.not.i11, label %lean_nat_abs.exit, label %19

lean_int_lt.exit.i:                               ; preds = %13
  %18 = tail call zeroext i1 @lean_int_big_lt(ptr noundef %12, ptr noundef nonnull inttoptr (i64 1 to ptr)) #6
  br i1 %18, label %31, label %35

19:                                               ; preds = %16
  %20 = shl i64 %14, 31
  %21 = ashr i64 %20, 32
  %22 = sub nsw i64 0, %21
  %23 = add nsw i64 %21, 2147483647
  %24 = icmp ult i64 %23, 4294967296
  br i1 %24, label %25, label %29, !prof !5

25:                                               ; preds = %19
  %26 = shl nuw nsw i64 %22, 1
  %27 = or disjoint i64 %26, 1
  %28 = inttoptr i64 %27 to ptr
  br label %lean_int_neg.exit.i

29:                                               ; preds = %19
  %30 = tail call ptr @lean_big_int64_to_int(i64 noundef range(i64 -4611686016279904256, 4611686018427387905) %22) #6
  br label %lean_int_neg.exit.i

31:                                               ; preds = %lean_int_lt.exit.i
  %32 = tail call ptr @lean_int_big_neg(ptr noundef %12) #6
  br label %lean_int_neg.exit.i

lean_int_neg.exit.i:                              ; preds = %31, %29, %25
  %.0.i6.i = phi ptr [ %32, %31 ], [ %28, %25 ], [ %30, %29 ]
  %33 = ptrtoint ptr %.0.i6.i to i64
  %34 = and i64 %33, 1
  %.not.i7.i = icmp eq i64 %34, 0
  br i1 %.not.i7.i, label %lean_int_to_nat.exit.sink.split.i, label %lean_nat_abs.exit

35:                                               ; preds = %lean_int_lt.exit.i
  %.val.i.i = load i32, ptr %12, align 4, !tbaa !10
  %36 = icmp sgt i32 %.val.i.i, 0
  br i1 %36, label %37, label %39, !prof !5

37:                                               ; preds = %35
  %38 = add nuw i32 %.val.i.i, 1
  store i32 %38, ptr %12, align 4, !tbaa !10
  br label %lean_int_to_nat.exit.sink.split.i

39:                                               ; preds = %35
  %.not.i9.i = icmp eq i32 %.val.i.i, 0
  br i1 %.not.i9.i, label %lean_int_to_nat.exit.sink.split.i, label %40

40:                                               ; preds = %39
  tail call void @lean_inc_ref_cold(ptr noundef nonnull %12) #6
  br label %lean_int_to_nat.exit.sink.split.i

lean_int_to_nat.exit.sink.split.i:                ; preds = %40, %39, %37, %lean_int_neg.exit.i
  %.sink.i = phi ptr [ %.0.i6.i, %lean_int_neg.exit.i ], [ %12, %40 ], [ %12, %39 ], [ %12, %37 ]
  %41 = tail call ptr @lean_big_int_to_nat(ptr noundef %.sink.i) #6
  br label %lean_nat_abs.exit

42:                                               ; preds = %lean_obj_tag.exit
  %43 = getelementptr inbounds nuw i8, ptr %0, i64 24
  %44 = load ptr, ptr %43, align 8, !tbaa !6
  %45 = ptrtoint ptr %12 to i64
  %46 = and i64 %45, 1
  %.not.i.i13 = icmp eq i64 %46, 0
  br i1 %.not.i.i13, label %lean_int_lt.exit.i21, label %47, !prof !4

47:                                               ; preds = %42
  %48 = and i64 %45, 4294967296
  %.not.i14 = icmp eq i64 %48, 0
  br i1 %.not.i14, label %lean_nat_abs.exit24, label %50

lean_int_lt.exit.i21:                             ; preds = %42
  %49 = tail call zeroext i1 @lean_int_big_lt(ptr noundef %12, ptr noundef nonnull inttoptr (i64 1 to ptr)) #6
  br i1 %49, label %62, label %66

50:                                               ; preds = %47
  %51 = shl i64 %45, 31
  %52 = ashr i64 %51, 32
  %53 = sub nsw i64 0, %52
  %54 = add nsw i64 %52, 2147483647
  %55 = icmp ult i64 %54, 4294967296
  br i1 %55, label %56, label %60, !prof !5

56:                                               ; preds = %50
  %57 = shl nuw nsw i64 %53, 1
  %58 = or disjoint i64 %57, 1
  %59 = inttoptr i64 %58 to ptr
  br label %lean_int_neg.exit.i15

60:                                               ; preds = %50
  %61 = tail call ptr @lean_big_int64_to_int(i64 noundef range(i64 -4611686016279904256, 4611686018427387905) %53) #6
  br label %lean_int_neg.exit.i15

62:                                               ; preds = %lean_int_lt.exit.i21
  %63 = tail call ptr @lean_int_big_neg(ptr noundef %12) #6
  br label %lean_int_neg.exit.i15

lean_int_neg.exit.i15:                            ; preds = %62, %60, %56
  %.0.i6.i16 = phi ptr [ %63, %62 ], [ %59, %56 ], [ %61, %60 ]
  %64 = ptrtoint ptr %.0.i6.i16 to i64
  %65 = and i64 %64, 1
  %.not.i7.i17 = icmp eq i64 %65, 0
  br i1 %.not.i7.i17, label %lean_int_to_nat.exit.sink.split.i19, label %lean_nat_abs.exit24

66:                                               ; preds = %lean_int_lt.exit.i21
  %.val.i.i22 = load i32, ptr %12, align 4, !tbaa !10
  %67 = icmp sgt i32 %.val.i.i22, 0
  br i1 %67, label %68, label %70, !prof !5

68:                                               ; preds = %66
  %69 = add nuw i32 %.val.i.i22, 1
  store i32 %69, ptr %12, align 4, !tbaa !10
  br label %lean_int_to_nat.exit.sink.split.i19

70:                                               ; preds = %66
  %.not.i9.i23 = icmp eq i32 %.val.i.i22, 0
  br i1 %.not.i9.i23, label %lean_int_to_nat.exit.sink.split.i19, label %71

71:                                               ; preds = %70
  tail call void @lean_inc_ref_cold(ptr noundef nonnull %12) #6
  br label %lean_int_to_nat.exit.sink.split.i19

lean_int_to_nat.exit.sink.split.i19:              ; preds = %71, %70, %68, %lean_int_neg.exit.i15
  %.sink.i20 = phi ptr [ %.0.i6.i16, %lean_int_neg.exit.i15 ], [ %12, %71 ], [ %12, %70 ], [ %12, %68 ]
  %72 = tail call ptr @lean_big_int_to_nat(ptr noundef %.sink.i20) #6
  br label %lean_nat_abs.exit24

lean_nat_abs.exit24:                              ; preds = %47, %lean_int_neg.exit.i15, %lean_int_to_nat.exit.sink.split.i19
  %.0.i18 = phi ptr [ %.0.i6.i16, %lean_int_neg.exit.i15 ], [ %12, %47 ], [ %72, %lean_int_to_nat.exit.sink.split.i19 ]
  %73 = tail call ptr @l_Lean_Grind_CommRing_Poly_gcdCoeffs_go(ptr noundef %44, ptr noundef %.0.i18)
  br label %lean_nat_abs.exit

lean_nat_abs.exit:                                ; preds = %lean_int_to_nat.exit.sink.split.i, %lean_int_neg.exit.i, %16, %lean_nat_abs.exit24
  %.0 = phi ptr [ %73, %lean_nat_abs.exit24 ], [ %.0.i6.i, %lean_int_neg.exit.i ], [ %12, %16 ], [ %41, %lean_int_to_nat.exit.sink.split.i ]
  ret ptr %.0
}